; ModuleID = 'source-C-CXX/57/286.c'
source_filename = "source-C-CXX/57/286.c"
target datalayout = "e-m:e-p270:32:32-p271:32:32-p272:64:64-i64:64-f80:128-n8:16:32:64-S128"
target triple = "x86_64-pc-linux-gnu"

%struct._IO_FILE = type { i32, i8*, i8*, i8*, i8*, i8*, i8*, i8*, i8*, i8*, i8*, i8*, %struct._IO_marker*, %struct._IO_FILE*, i32, i32, i64, i16, i8, [1 x i8], i8*, i64, %struct._IO_codecvt*, %struct._IO_wide_data*, %struct._IO_FILE*, i8*, i64, i32, [20 x i8] }
%struct._IO_marker = type opaque
%struct._IO_codecvt = type opaque
%struct._IO_wide_data = type opaque

@.str = private unnamed_addr constant [3 x i8] c"%d\00", align 1
@stdin = external local_unnamed_addr global %struct._IO_FILE*, align 8
@str.3 = private unnamed_addr constant [2 x i8] c"0\00", align 1
@str.4 = private unnamed_addr constant [2 x i8] c"1\00", align 1

; Function Attrs: nounwind sspstrong uwtable
define dso_local i32 @main() local_unnamed_addr #0 {
  %1 = alloca i32, align 4
  %2 = alloca [1000 x i8], align 16
  %3 = bitcast i32* %1 to i8*
  call void @llvm.lifetime.start.p0i8(i64 4, i8* nonnull %3) #6
  %4 = call i32 (i8*, ...) @__isoc99_scanf(i8* getelementptr inbounds ([3 x i8], [3 x i8]* @.str, i64 0, i64 0), i32* nonnull %1)
  %5 = load %struct._IO_FILE*, %struct._IO_FILE** @stdin, align 8, !tbaa !5
  %6 = call i32 @getc(%struct._IO_FILE* %5) #6
  %7 = getelementptr inbounds [1000 x i8], [1000 x i8]* %2, i64 0, i64 0
  %8 = load i32, i32* %1, align 4, !tbaa !9
  %9 = icmp slt i32 %8, 1
  br i1 %9, label %54, label %10

10:                                               ; preds = %0, %48
  %11 = phi i32 [ %51, %48 ], [ 1, %0 ]
  call void @llvm.lifetime.start.p0i8(i64 1000, i8* nonnull %7) #6
  %12 = call i32 (i8*, ...) bitcast (i32 (...)* @gets to i32 (i8*, ...)*)(i8* nonnull %7) #6
  %13 = call i64 @strlen(i8* noundef nonnull %7) #7
  %14 = trunc i64 %13 to i32
  %15 = load i8, i8* %7, align 16, !tbaa !11
  %16 = icmp eq i8 %15, 95
  %17 = and i8 %15, -33
  %18 = add i8 %17, -65
  %19 = icmp ult i8 %18, 26
  %20 = or i1 %19, %16
  br i1 %20, label %21, label %48

21:                                               ; preds = %10
  %22 = icmp sgt i32 %14, 1
  br i1 %22, label %23, label %44

23:                                               ; preds = %21
  %24 = and i64 %13, 4294967295
  br label %25

25:                                               ; preds = %23, %39
  %26 = phi i64 [ 1, %23 ], [ %40, %39 ]
  %27 = getelementptr inbounds [1000 x i8], [1000 x i8]* %2, i64 0, i64 %26
  %28 = load i8, i8* %27, align 1, !tbaa !11
  %29 = add i8 %28, -65
  %30 = icmp ult i8 %29, 26
  br i1 %30, label %39, label %31

31:                                               ; preds = %25
  %32 = add i8 %28, -48
  %33 = icmp ult i8 %32, 10
  %34 = icmp eq i8 %28, 95
  %35 = or i1 %34, %33
  %36 = add i8 %28, -97
  %37 = icmp ult i8 %36, 26
  %38 = or i1 %37, %35
  br i1 %38, label %39, label %42

39:                                               ; preds = %31, %25
  %40 = add nuw nsw i64 %26, 1
  %41 = icmp eq i64 %40, %24
  br i1 %41, label %48, label %25, !llvm.loop !12

42:                                               ; preds = %31
  %43 = trunc i64 %26 to i32
  br label %44

44:                                               ; preds = %42, %21
  %45 = phi i32 [ 1, %21 ], [ %43, %42 ]
  %46 = icmp eq i32 %45, %14
  %47 = select i1 %46, i8* getelementptr inbounds ([2 x i8], [2 x i8]* @str.4, i64 0, i64 0), i8* getelementptr inbounds ([2 x i8], [2 x i8]* @str.3, i64 0, i64 0)
  br label %48

48:                                               ; preds = %39, %44, %10
  %49 = phi i8* [ getelementptr inbounds ([2 x i8], [2 x i8]* @str.3, i64 0, i64 0), %10 ], [ %47, %44 ], [ getelementptr inbounds ([2 x i8], [2 x i8]* @str.4, i64 0, i64 0), %39 ]
  %50 = call i32 @puts(i8* nonnull dereferenceable(1) %49)
  call void @llvm.lifetime.end.p0i8(i64 1000, i8* nonnull %7) #6
  %51 = add nuw nsw i32 %11, 1
  %52 = load i32, i32* %1, align 4, !tbaa !9
  %53 = icmp slt i32 %11, %52
  br i1 %53, label %10, label %54, !llvm.loop !14

54:                                               ; preds = %48, %0
  call void @llvm.lifetime.end.p0i8(i64 4, i8* nonnull %3) #6
  ret i32 0
}

; Function Attrs: argmemonly mustprogress nofree nosync nounwind willreturn
declare void @llvm.lifetime.start.p0i8(i64 immarg, i8* nocapture) #1

; Function Attrs: nofree nounwind
declare noundef i32 @__isoc99_scanf(i8* nocapture noundef readonly, ...) local_unnamed_addr #2

declare i32 @gets(...) local_unnamed_addr #3

; Function Attrs: argmemonly mustprogress nofree nounwind readonly willreturn
declare i64 @strlen(i8* nocapture) local_unnamed_addr #4

; Function Attrs: argmemonly mustprogress nofree nosync nounwind willreturn
declare void @llvm.lifetime.end.p0i8(i64 immarg, i8* nocapture) #1

; Function Attrs: nofree nounwind
declare noundef i32 @getc(%struct._IO_FILE* nocapture noundef) local_unnamed_addr #2

; Function Attrs: nofree nounwind
declare noundef i32 @puts(i8* nocapture noundef readonly) local_unnamed_addr #5


!llvm.module.flags = !{!0, !1, !2, !3}
!llvm.ident = !{!4}

!0 = !{i32 1, !"wchar_size", i32 4}
!1 = !{i32 7, !"PIC Level", i32 2}
!2 = !{i32 7, !"PIE Level", i32 2}
!3 = !{i32 7, !"uwtable", i32 1}
!4 = !{!"clang version 13.0.0"}
!5 = !{!6, !6, i64 0}
!6 = !{!"any pointer", !7, i64 0}
!7 = !{!"omnipotent char", !8, i64 0}
!8 = !{!"Simple C/C++ TBAA"}
!9 = !{!10, !10, i64 0}
!10 = !{!"int", !7, i64 0}
!11 = !{!7, !7, i64 0}
!12 = distinct !{!12, !13}
!13 = !{!"llvm.loop.mustprogress"}
!14 = distinct !{!14, !13}
